Certificate:
    Data:
        Version: 3 (0x2)
        Serial Number: 1 (0x1)
        Signature Algorithm: sha256WithRSAEncryption
        Issuer: CN=devcert
        Validity
            Not Before: Apr 26 17:02:09 2020 GMT
            Not After : Jul 30 17:02:09 2022 GMT
        Subject: CN=localhost
        Subject Public Key Info:
            Public Key Algorithm: rsaEncryption
                RSA Public-Key: (2048 bit)
                Modulus:
                    00:b7:e5:a4:61:37:6b:80:8e:70:ba:65:8b:1c:70:
                    6d:d3:4f:b5:3d:f3:81:ad:d8:b3:07:2c:33:4a:d0:
                    a2:ef:94:d5:4a:9a:70:bf:1b:de:b2:6d:47:1c:55:
                    fb:3b:3e:69:e5:2a:eb:73:2a:14:a1:4d:1e:c5:a8:
                    c1:39:d5:2f:1c:b8:e3:13:6b:46:d0:80:41:f5:80:
                    f3:7d:6a:df:65:bc:bb:21:2e:d7:e2:b9:f5:8f:99:
                    74:14:db:f9:9d:bc:4d:21:e1:5e:43:8a:8c:e7:ed:
                    b7:a1:eb:2b:23:41:1d:b4:d4:83:a8:b9:98:35:6a:
                    7f:cb:87:c6:ce:f6:dc:f2:f4:e6:47:62:60:ad:0c:
                    76:62:39:5a:aa:49:b5:0f:8f:1d:8c:e1:9b:65:04:
                    ab:4e:30:a1:c8:9e:99:94:58:e5:a1:a3:ed:b7:48:
                    a8:1b:14:8d:d2:31:13:ba:4f:da:0e:39:d2:80:41:
                    2d:7e:0f:8c:a9:bb:14:36:e4:30:aa:8d:49:df:58:
                    31:ce:cd:18:a2:40:b9:3c:ee:28:9b:f0:c6:94:04:
                    21:45:77:5a:31:37:f9:64:54:70:b7:2c:b5:b8:0c:
                    e3:37:09:5b:77:d3:4d:50:6d:0e:5d:95:1b:53:49:
                    df:ad:17:c6:0e:1c:f5:67:c4:2d:97:79:de:ff:0e:
                    c4:53
                Exponent: 65537 (0x10001)
        X509v3 extensions:
            X509v3 Basic Constraints: critical
                CA:FALSE
            X509v3 Subject Key Identifier: 
                BC:4D:4B:1A:E6:38:D0:85:B9:9E:FF:1B:B6:00:26:F9:75:9C:DE:A8
            X509v3 Authority Key Identifier: 
                keyid:62:8F:A8:2B:81:F2:EB:C4:B6:B4:6A:28:62:55:A5:9B:C7:E2:F1:E4
                DirName:/CN=devcert
                serial:6F:7D:3F:F7:4D:FA:74:30:24:74:D2:19:67:4C:5F:34:2B:F3:F8:59

            X509v3 Key Usage: critical
                Digital Signature, Key Encipherment
            X509v3 Extended Key Usage: 
                TLS Web Server Authentication
            X509v3 Subject Alternative Name: 
                DNS:localhost, DNS:*.localhost
    Signature Algorithm: sha256WithRSAEncryption
         c3:29:b0:a2:7e:d4:0e:ec:2d:84:40:7c:18:a9:5b:74:c6:67:
         4d:1a:4a:d0:b9:75:c9:2c:5d:f7:86:1c:c7:2b:33:e2:68:7d:
         c2:3c:29:d9:65:70:31:96:79:62:30:d1:31:f7:51:d3:c3:db:
         ff:10:23:17:54:e3:26:23:06:97:c0:29:60:b6:7a:93:72:08:
         76:fd:ab:01:8c:a6:19:98:dd:af:5e:89:3e:1c:98:f2:2b:32:
         7b:6e:dc:fb:58:fa:d6:58:d4:ae:07:bf:06:80:a7:bd:61:83:
         56:a7:8f:15:b7:4b:5d:49:0b:67:d3:fc:82:58:d9:20:25:4e:
         62:a9:ca:1a:1b:8e:7a:ec:54:2c:75:af:5e:b0:99:bf:c8:f8:
         ee:2e:d4:23:cc:2c:78:6d:14:51:6c:2d:04:5a:a4:eb:c3:6e:
         c7:e3:bb:d9:f8:4d:a1:30:f7:74:45:59:75:cf:31:3c:62:65:
         2a:36:a8:26:fb:59:8b:62:c2:3e:ae:ff:3d:16:61:fd:44:9a:
         9d:47:59:85:fc:0b:42:35:47:29:f1:0f:3e:c1:88:5f:a0:dc:
         39:e5:b3:90:d6:89:cc:b6:c8:65:45:c0:b4:cd:75:e6:28:1d:
         82:18:8d:97:3a:ee:d5:9b:eb:f1:d2:67:c0:2d:82:b3:8b:e3:
         96:e2:5d:9c
-----BEGIN CERTIFICATE-----
MIIDaTCCAlGgAwIBAgIBATANBgkqhkiG9w0BAQsFADASMRAwDgYDVQQDDAdkZXZj
ZXJ0MB4XDTIwMDQyNjE3MDIwOVoXDTIyMDczMDE3MDIwOVowFDESMBAGA1UEAwwJ
bG9jYWxob3N0MIIBIjANBgkqhkiG9w0BAQEFAAOCAQ8AMIIBCgKCAQEAt+WkYTdr
gI5wumWLHHBt00+1PfOBrdizBywzStCi75TVSppwvxvesm1HHFX7Oz5p5SrrcyoU
oU0exajBOdUvHLjjE2tG0IBB9YDzfWrfZby7IS7X4rn1j5l0FNv5nbxNIeFeQ4qM
5+23oesrI0EdtNSDqLmYNWp/y4fGzvbc8vTmR2JgrQx2Yjlaqkm1D48djOGbZQSr
TjChyJ6ZlFjloaPtt0ioGxSN0jETuk/aDjnSgEEtfg+MqbsUNuQwqo1J31gxzs0Y
okC5PO4om/DGlAQhRXdaMTf5ZFRwtyy1uAzjNwlbd9NNUG0OXZUbU0nfrRfGDhz1
Z8Qtl3ne/w7EUwIDAQABo4HHMIHEMAwGA1UdEwEB/wQCMAAwHQYDVR0OBBYEFLxN
SxrmONCFuZ7/G7YAJvl1nN6oME0GA1UdIwRGMESAFGKPqCuB8uvEtrRqKGJVpZvH
4vHkoRakFDASMRAwDgYDVQQDDAdkZXZjZXJ0ghRvfT/3Tfp0MCR00hlnTF80K/P4
WTAOBgNVHQ8BAf8EBAMCBaAwEwYDVR0lBAwwCgYIKwYBBQUHAwEwIQYDVR0RBBow
GIIJbG9jYWxob3N0ggsqLmxvY2FsaG9zdDANBgkqhkiG9w0BAQsFAAOCAQEAwymw
on7UDuwthEB8GKlbdMZnTRpK0Ll1ySxd94Ycxysz4mh9wjwp2WVwMZZ5YjDRMfdR
08Pb/xAjF1TjJiMGl8ApYLZ6k3IIdv2rAYymGZjdr16JPhyY8isye27c+1j61ljU
rge/BoCnvWGDVqePFbdLXUkLZ9P8gljZICVOYqnKGhuOeuxULHWvXrCZv8j47i7U
I8wseG0UUWwtBFqk68Nux+O72fhNoTD3dEVZdc8xPGJlKjaoJvtZi2LCPq7/PRZh
/USanUdZhfwLQjVHKfEPPsGIX6DcOeWzkNaJzLbIZUXAtM115igdghiNlzru1Zvr
8dJnwC2Cs4vjluJdnA==
-----END CERTIFICATE-----
